; Function Attrs: nounwind uwtable
define noalias noundef ptr @Sfm_TimStart(ptr noundef %0, ptr noundef %1, ptr noundef %2, i32 noundef %3) local_unnamed_addr #0 {
  %5 = tail call noalias dereferenceable_or_null(112) ptr @calloc(i64 noundef 1, i64 noundef 112) #16
  store ptr %0, ptr %5, align 8, !tbaa !63
  %6 = getelementptr inbounds nuw i8, ptr %5, i64 8
  store ptr %1, ptr %6, align 8, !tbaa !64
  %7 = getelementptr inbounds nuw i8, ptr %5, i64 16
  store ptr %2, ptr %7, align 8, !tbaa !51
  %8 = getelementptr i8, ptr %2, i64 32
  %.val14 = load ptr, ptr %8, align 8, !tbaa !39
  %9 = getelementptr i8, ptr %.val14, i64 4
  %.val14.val = load i32, ptr %9, align 4, !tbaa !53
  %10 = mul nsw i32 %.val14.val, 3
  %.not.i.i = icmp sgt i32 %.val14.val, 0
  br i1 %.not.i.i, label %.lr.ph.i, label %Vec_IntFill.exit

.lr.ph.i:                                         ; preds = %4
  %11 = getelementptr inbounds nuw i8, ptr %5, i64 32
  %12 = getelementptr inbounds nuw i8, ptr %5, i64 40
  %13 = zext nneg i32 %10 to i64
  %14 = shl nuw nsw i64 %13, 2
  %15 = tail call noalias ptr @malloc(i64 noundef %14) #15
  store ptr %15, ptr %12, align 8, !tbaa !3
  store i32 %10, ptr %11, align 8, !tbaa !24
  %wide.trip.count.i = zext nneg i32 %10 to i64
  %16 = shl nuw nsw i64 %wide.trip.count.i, 2
  tail call void @llvm.memset.p0.i64(ptr align 4 %15, i8 0, i64 %16, i1 false), !tbaa !16
  %.val.val.pre = load i32, ptr %9, align 4, !tbaa !53
  %.phi.trans.insert = getelementptr inbounds nuw i8, ptr %5, i64 48
  %.pre = load i32, ptr %.phi.trans.insert, align 8, !tbaa !24
  %.pre25 = mul nsw i32 %.val.val.pre, 3
  %17 = icmp sgt i32 %.val.val.pre, 0
  br label %Vec_IntFill.exit

Vec_IntFill.exit:                                 ; preds = %4, %.lr.ph.i
  %.pre-phi = phi i32 [ %.pre25, %.lr.ph.i ], [ %10, %4 ]
  %18 = phi i32 [ %.pre, %.lr.ph.i ], [ 0, %4 ]
  %.val.val = phi i1 [ %17, %.lr.ph.i ], [ false, %4 ]
  %19 = getelementptr inbounds nuw i8, ptr %5, i64 36
  store i32 %10, ptr %19, align 4, !tbaa !23
  %.not.i.i15 = icmp slt i32 %18, %.pre-phi
  br i1 %.not.i.i15, label %20, label %Vec_IntGrow.exit.i16

20:                                               ; preds = %Vec_IntFill.exit
  %21 = getelementptr inbounds nuw i8, ptr %5, i64 48
  %22 = getelementptr inbounds nuw i8, ptr %5, i64 56
  %23 = sext i32 %.pre-phi to i64
  %24 = shl nsw i64 %23, 2
  %25 = tail call noalias ptr @malloc(i64 noundef %24) #15
  store ptr %25, ptr %22, align 8, !tbaa !3
  store i32 %.pre-phi, ptr %21, align 8, !tbaa !24
  br label %Vec_IntGrow.exit.i16

Vec_IntGrow.exit.i16:                             ; preds = %20, %Vec_IntFill.exit
  %26 = phi ptr [ %25, %20 ], [ null, %Vec_IntFill.exit ]
  br i1 %.val.val, label %.lr.ph.i17, label %Vec_IntFill.exit23

.lr.ph.i17:                                       ; preds = %Vec_IntGrow.exit.i16
  %wide.trip.count.i18 = zext nneg i32 %.pre-phi to i64
  %27 = shl nuw nsw i64 %wide.trip.count.i18, 2
  tail call void @llvm.memset.p0.i64(ptr align 4 %26, i8 0, i64 %27, i1 false), !tbaa !16
  br label %Vec_IntFill.exit23

Vec_IntFill.exit23:                               ; preds = %.lr.ph.i17, %Vec_IntGrow.exit.i16
  %28 = getelementptr inbounds nuw i8, ptr %5, i64 52
  store i32 %.pre-phi, ptr %28, align 4, !tbaa !23
  %29 = tail call i32 @Sfm_TimTrace(ptr noundef nonnull %5)
  %30 = getelementptr inbounds nuw i8, ptr %5, i64 24
  store i32 %29, ptr %30, align 8, !tbaa !44
  %31 = getelementptr inbounds nuw i8, ptr %5, i64 28
  store i32 %3, ptr %31, align 4, !tbaa !65
  ret ptr %5
}